(dp0
S'hours slept'
p1
ccopy_reg
_reconstructor
p2
(c__main__
tag
p3
c__builtin__
object
p4
Ntp5
Rp6
(dp7
S'group'
p8
g2
(c__main__
group
p9
g4
Ntp10
Rp11
(dp12
S'content'
p13
(lp14
S'food'
p15
aS'groceries on hand'
p16
ag1
aS'time up'
p17
aS'walking'
p18
asS'open_tags'
p19
(lp20
g15
ag16
ag1
ag17
ag18
asS'name'
p21
S'health, etc.'
p22
sS'allAnswered'
p23
I00
sbsS'title'
p24
g1
sS'timeLine'
p25
g2
(c__main__
timeLine
p26
g4
Ntp27
Rp28
(dp29
S'tag'
p30
g6
sS'data'
p31
(dp32
I1
(lp33
sI2
(lp34
sI3
(lp35
sI4
(lp36
ssS'lastEntry'
p37
NsbsS'question'
p38
S'How much did you sleep?'
p39
sS'used_options'
p40
I4
sS'options'
p41
(dp42
I1
S'8+ hours'
p43
sI2
S'7 hours'
p44
sI3
S'6'
p45
sI4
S'5'
p46
ssbsS'time for fun'
p47
g2
(g3
g4
Ntp48
Rp49
(dp50
g8
g2
(g9
g4
Ntp51
Rp52
(dp53
g13
(lp54
g47
aS'time w/Friends'
p55
asg19
(lp56
g47
ag55
asg21
S'fun & friends'
p57
sg23
I00
sbsg24
g47
sg25
g2
(g26
g4
Ntp58
Rp59
(dp60
g30
g49
sg31
(dp61
I1
(lp62
sI2
(lp63
sI3
(lp64
sI4
(lp65
ssg37
Nsbsg38
S'Did you make time to relax/have fun?'
p66
sg40
I4
sg41
(dp67
I1
S'Yes-- 4+ hours'
p68
sI2
S'Yes-- 1+ hour'
p69
sI3
S'No-- it was mostly a work day'
p70
sI4
S'Yes, but I was neglectful of my work'
p71
ssbsg18
g2
(g3
g4
Ntp72
Rp73
(dp74
g8
g11
sg24
g18
sg25
g2
(g26
g4
Ntp75
Rp76
(dp77
g30
g73
sg31
(dp78
I1
(lp79
sI2
(lp80
sI3
(lp81
sI4
(lp82
ssg37
Nsbsg38
S'Did you go walking today?'
p83
sg40
I2
sg41
(dp84
I1
S'Yes'
p85
sI2
S'No'
p86
sI3
NsI4
NssbsS'scholarships'
p87
g2
(g3
g4
Ntp88
Rp89
(dp90
g8
g2
(g9
g4
Ntp91
Rp92
(dp93
g13
(lp94
S'Phi Theta Kappa'
p95
aS'internships'
p96
ag87
asg19
(lp97
g95
ag96
ag87
asg21
S'extracurricular'
p98
sg23
I00
sbsg24
g87
sg25
g2
(g26
g4
Ntp99
Rp100
(dp101
g30
g89
sg31
(dp102
I1
(lp103
sI2
(lp104
sI3
(lp105
sI4
(lp106
ssg37
Nsbsg38
S'Did you work on scholarships today?'
p107
sg40
I3
sg41
(dp108
I1
S'Yes, I researched them '
p109
sI2
S'Yes, I applied/wrote for them'
p110
sI3
S"No, I didn't"
p111
sI4
NssbsS'mood'
p112
g2
(g3
g4
Ntp113
Rp114
(dp115
g8
g2
(g9
g4
Ntp116
Rp117
(dp118
g13
(lp119
S'focus'
p120
aS'meditation'
p121
aS'mentality'
p122
ag112
asg19
(lp123
g120
ag121
ag122
ag112
asg21
S'mentality'
p124
sg23
I00
sbsg24
g112
sg25
g2
(g26
g4
Ntp125
Rp126
(dp127
g30
g114
sg31
(dp128
I1
(lp129
sI2
(lp130
sI3
(lp131
sI4
(lp132
ssg37
Nsbsg38
S'What was your overall mood?'
p133
sg40
I4
sg41
(dp134
I1
S'Very positive'
p135
sI2
S'Good'
p136
sI3
S'Up and down'
p137
sI4
S'Bad'
p138
ssbsS'schedule'
p139
g2
(g3
g4
Ntp140
Rp141
(dp142
g8
g2
(g9
g4
Ntp143
Rp144
(dp145
g13
(lp146
g139
aS'study location'
p147
aS'time studying'
p148
asg19
(lp149
g139
ag147
ag148
asg21
S'school'
p150
sg23
I00
sbsg24
g139
sg25
g2
(g26
g4
Ntp151
Rp152
(dp153
g30
g141
sg31
(dp154
I1
(lp155
sI2
(lp156
sI3
(lp157
sI4
(lp158
ssg37
Nsbsg38
S'Did you follow a schedule today?'
p159
sg40
I4
sg41
(dp160
I1
S'Yes, very much so'
p161
sI2
S'I did, for the most part'
p162
sI3
S'I followed it somewhat'
p163
sI4
S"I didn't follow my schedule at all"
p164
ssbsg15
g2
(g3
g4
Ntp165
Rp166
(dp167
g8
g11
sg24
g15
sg25
g2
(g26
g4
Ntp168
Rp169
(dp170
g30
g166
sg31
(dp171
I1
(lp172
sI2
(lp173
sI3
(lp174
sI4
(lp175
ssg37
Nsbsg38
S'Did you eat enough today?'
p176
sg40
I3
sg41
(dp177
I1
S'Yes, definitely'
p178
sI2
S'For the most part'
p179
sI3
S'Not really'
p180
sI4
Nssbsg16
g2
(g3
g4
Ntp181
Rp182
(dp183
g8
g11
sg24
g16
sg25
g2
(g26
g4
Ntp184
Rp185
(dp186
g30
g182
sg31
(dp187
I1
(lp188
sI2
(lp189
sI3
(lp190
sI4
(lp191
ssg37
Nsbsg38
S'Do you have enough food on hand?'
p192
sg40
I2
sg41
(dp193
I1
S'Yes'
p194
sI2
S'No'
p195
sI3
NsI4
Nssbsg122
g2
(g3
g4
Ntp196
Rp197
(dp198
g8
g117
sg24
g122
sg25
g2
(g26
g4
Ntp199
Rp200
(dp201
g30
g197
sg31
(dp202
I1
(lp203
sI2
(lp204
sI3
(lp205
sI4
(lp206
ssg37
Nsbsg38
S'Did you control your mentality?'
p207
sg40
I4
sg41
(dp208
I1
S'Yes, and it was very challenging'
p209
sI2
S"Yes, but it wasn't too challenging"
p210
sI3
S'I did not, it was very challenging'
p211
sI4
S"I did not, and it wouldn't have been challenging"
p212
ssbsg120
g2
(g3
g4
Ntp213
Rp214
(dp215
g8
g117
sg24
g120
sg25
g2
(g26
g4
Ntp216
Rp217
(dp218
g30
g214
sg31
(dp219
I1
(lp220
sI2
(lp221
sI3
(lp222
sI4
(lp223
ssg37
Nsbsg38
S'How focused were you?'
p224
sg40
I4
sg41
(dp225
I1
S'I was very focused today'
p226
sI2
S'I was mostly focused'
p227
sI3
S'It went up and down-- focused then unfocused'
p228
sI4
S"I wasn't focused much at all"
p229
ssbsg147
g2
(g3
g4
Ntp230
Rp231
(dp232
g8
g144
sg24
g147
sg25
g2
(g26
g4
Ntp233
Rp234
(dp235
g30
g231
sg31
(dp236
I1
(lp237
sI2
(lp238
sI3
(lp239
sI4
(lp240
ssg37
Nsbsg38
S'Where did you study?'
p241
sg40
I4
sg41
(dp242
I1
S'At school'
p243
sI2
S'At home'
p244
sI3
S'School & Home'
p245
sI4
S'Somewhere else'
p246
ssbsg17
g2
(g3
g4
Ntp247
Rp248
(dp249
g8
g11
sg24
g17
sg25
g2
(g26
g4
Ntp250
Rp251
(dp252
g30
g248
sg31
(dp253
I1
(lp254
sI2
(lp255
sI3
(lp256
sI4
(lp257
ssg37
Nsbsg38
S'When did you wake up?'
p258
sg40
I4
sg41
(dp259
I1
S'5:45am'
p260
sI2
S'7am'
p261
sI3
S'8am'
p262
sI4
S'9am+'
p263
ssbsg148
g2
(g3
g4
Ntp264
Rp265
(dp266
g8
g144
sg24
g148
sg25
g2
(g26
g4
Ntp267
Rp268
(dp269
g30
g265
sg31
(dp270
I1
(lp271
sI2
(lp272
sI3
(lp273
sI4
(lp274
ssg37
Nsbsg38
S'How much did you study?'
p275
sg40
I4
sg41
(dp276
I1
S'8+ hours'
p277
sI2
S'4+ hours'
p278
sI3
S'2+ hours'
p279
sI4
S"I didn't study at all"
p280
ssbsg55
g2
(g3
g4
Ntp281
Rp282
(dp283
g8
g52
sg24
g55
sg25
g2
(g26
g4
Ntp284
Rp285
(dp286
g30
g282
sg31
(dp287
I1
(lp288
sI2
(lp289
sI3
(lp290
sI4
(lp291
ssg37
Nsbsg38
S'Did you spend time with friends?'
p292
sg40
I4
sg41
(dp293
I1
S'Yes-- 4+ hours'
p294
sI2
S'Yes-- 1+ hours'
p295
sI3
S'I mostly hung out in class'
p296
sI4
S"I didn't spend time with people today"
p297
ssbsS'progress'
p298
g2
(g3
g4
Ntp299
Rp300
(dp301
g8
g2
(g9
g4
Ntp302
Rp303
(dp304
g13
(lp305
S'effectiveness'
p306
ag298
aS'time coding'
p307
asg19
(lp308
g306
ag298
ag307
asg21
S'programming'
p309
sg23
I00
sbsg24
g298
sg25
g2
(g26
g4
Ntp310
Rp311
(dp312
g30
g300
sg31
(dp313
I1
(lp314
sI2
(lp315
sI3
(lp316
sI4
(lp317
ssg37
Nsbsg38
S'Did you make progress on goals?'
p318
sg40
I4
sg41
(dp319
I1
S'Yes, made a lot of progress'
p320
sI2
S'Made decent progress'
p321
sI3
S"I didn't work on main projects"
p322
sI4
S'N/A'
p323
ssbsg121
g2
(g3
g4
Ntp324
Rp325
(dp326
g8
g117
sg24
g121
sg25
g2
(g26
g4
Ntp327
Rp328
(dp329
g30
g325
sg31
(dp330
I1
(lp331
sI2
(lp332
sI3
(lp333
sI4
(lp334
ssg37
Nsbsg38
S'Did you meditate?'
p335
sg40
I3
sg41
(dp336
I1
S'Yes I did-- 10+ minutes'
p337
sI2
S'Yes-- 5 to 10 minutes'
p338
sI3
S'I did not'
p339
sI4
Nssbsg306
g2
(g3
g4
Ntp340
Rp341
(dp342
g8
g303
sg24
g306
sg25
g2
(g26
g4
Ntp343
Rp344
(dp345
g30
g341
sg31
(dp346
I1
(lp347
sI2
(lp348
sI3
(lp349
sI4
(lp350
ssg37
Nsbsg38
S'How effective/efficient were you?'
p351
sg40
I3
sg41
(dp352
I1
S'Very effective and efficient'
p353
sI2
S'Decently effective'
p354
sI3
S'N/A'
p355
sI4
Nssbsg307
g2
(g3
g4
Ntp356
Rp357
(dp358
g8
g303
sg24
g307
sg25
g2
(g26
g4
Ntp359
Rp360
(dp361
g30
g357
sg31
(dp362
I1
(lp363
sI2
(lp364
sI3
(lp365
sI4
(lp366
ssg37
Nsbsg38
S'How long did you code today?'
p367
sg40
I4
sg41
(dp368
I1
S'5+ hours'
p369
sI2
S'3+ hours'
p370
sI3
S'1+ hour'
p371
sI4
S"Didn't code today"
p372
ssbsg96
g2
(g3
g4
Ntp373
Rp374
(dp375
g8
g92
sg24
g96
sg25
g2
(g26
g4
Ntp376
Rp377
(dp378
g30
g374
sg31
(dp379
I1
(lp380
sI2
(lp381
sI3
(lp382
sI4
(lp383
ssg37
Nsbsg38
S'Did you do any work for internships?'
p384
sg40
I3
sg41
(dp385
I1
S'Yes, I researched them'
p386
sI2
S'Yes, I worked on them'
p387
sI3
S"No, I didn't"
p388
sI4
Nssbsg95
g2
(g3
g4
Ntp389
Rp390
(dp391
g8
g92
sg24
g95
sg25
g2
(g26
g4
Ntp392
Rp393
(dp394
g30
g390
sg31
(dp395
I1
(lp396
sI2
(lp397
sI3
(lp398
sI4
(lp399
ssg37
Nsbsg38
S'Did you do work for PTK?'
p400
sg40
I2
sg41
(dp401
I1
S'Yes'
p402
sI2
S'No'
p403
sI3
NsI4
Nssbs.